
Timer0.elf:     file format elf32-avr

Sections:
Idx Name          Size      VMA       LMA       File off  Algn
  0 .text         000001e0  00000000  00000000  00000074  2**1
                  CONTENTS, ALLOC, LOAD, READONLY, CODE
  1 .data         00000000  00800060  00800060  00000254  2**0
                  CONTENTS, ALLOC, LOAD, DATA
  2 .bss          0000000a  00800060  00800060  00000254  2**0
                  ALLOC
  3 .comment      00000030  00000000  00000000  00000254  2**0
                  CONTENTS, READONLY
  4 .note.gnu.avr.deviceinfo 0000003c  00000000  00000000  00000284  2**2
                  CONTENTS, READONLY
  5 .debug_info   000004e6  00000000  00000000  000002c0  2**0
                  CONTENTS, READONLY, DEBUGGING
  6 .debug_abbrev 000004a3  00000000  00000000  000007a6  2**0
                  CONTENTS, READONLY, DEBUGGING
  7 .debug_line   00000115  00000000  00000000  00000c49  2**0
                  CONTENTS, READONLY, DEBUGGING
  8 .debug_str    00000196  00000000  00000000  00000d5e  2**0
                  CONTENTS, READONLY, DEBUGGING

Disassembly of section .text:

00000000 <__vectors>:
   0:	0c 94 2a 00 	jmp	0x54	; 0x54 <__ctors_end>
   4:	0c 94 3c 00 	jmp	0x78	; 0x78 <__bad_interrupt>
   8:	0c 94 3c 00 	jmp	0x78	; 0x78 <__bad_interrupt>
   c:	0c 94 3c 00 	jmp	0x78	; 0x78 <__bad_interrupt>
  10:	0c 94 3c 00 	jmp	0x78	; 0x78 <__bad_interrupt>
  14:	0c 94 3c 00 	jmp	0x78	; 0x78 <__bad_interrupt>
  18:	0c 94 3c 00 	jmp	0x78	; 0x78 <__bad_interrupt>
  1c:	0c 94 3c 00 	jmp	0x78	; 0x78 <__bad_interrupt>
  20:	0c 94 3c 00 	jmp	0x78	; 0x78 <__bad_interrupt>
  24:	0c 94 3c 00 	jmp	0x78	; 0x78 <__bad_interrupt>
  28:	0c 94 8b 00 	jmp	0x116	; 0x116 <__vector_10>
  2c:	0c 94 3c 00 	jmp	0x78	; 0x78 <__bad_interrupt>
  30:	0c 94 3c 00 	jmp	0x78	; 0x78 <__bad_interrupt>
  34:	0c 94 3c 00 	jmp	0x78	; 0x78 <__bad_interrupt>
  38:	0c 94 3c 00 	jmp	0x78	; 0x78 <__bad_interrupt>
  3c:	0c 94 3c 00 	jmp	0x78	; 0x78 <__bad_interrupt>
  40:	0c 94 3c 00 	jmp	0x78	; 0x78 <__bad_interrupt>
  44:	0c 94 3c 00 	jmp	0x78	; 0x78 <__bad_interrupt>
  48:	0c 94 3c 00 	jmp	0x78	; 0x78 <__bad_interrupt>
  4c:	0c 94 3c 00 	jmp	0x78	; 0x78 <__bad_interrupt>
  50:	0c 94 3c 00 	jmp	0x78	; 0x78 <__bad_interrupt>

00000054 <__ctors_end>:
  54:	11 24       	eor	r1, r1
  56:	1f be       	out	0x3f, r1	; 63
  58:	cf e5       	ldi	r28, 0x5F	; 95
  5a:	d8 e0       	ldi	r29, 0x08	; 8
  5c:	de bf       	out	0x3e, r29	; 62
  5e:	cd bf       	out	0x3d, r28	; 61

00000060 <__do_clear_bss>:
  60:	20 e0       	ldi	r18, 0x00	; 0
  62:	a0 e6       	ldi	r26, 0x60	; 96
  64:	b0 e0       	ldi	r27, 0x00	; 0
  66:	01 c0       	rjmp	.+2      	; 0x6a <.do_clear_bss_start>

00000068 <.do_clear_bss_loop>:
  68:	1d 92       	st	X+, r1

0000006a <.do_clear_bss_start>:
  6a:	aa 36       	cpi	r26, 0x6A	; 106
  6c:	b2 07       	cpc	r27, r18
  6e:	e1 f7       	brne	.-8      	; 0x68 <.do_clear_bss_loop>
  70:	0e 94 3e 00 	call	0x7c	; 0x7c <main>
  74:	0c 94 ee 00 	jmp	0x1dc	; 0x1dc <_exit>

00000078 <__bad_interrupt>:
  78:	0c 94 00 00 	jmp	0	; 0x0 <__vectors>

0000007c <main>:
  7c:	bb 9a       	sbi	0x17, 3	; 23
  7e:	a2 9a       	sbi	0x14, 2	; 20
  80:	aa 9a       	sbi	0x15, 2	; 21
  82:	95 b3       	in	r25, 0x15	; 21
  84:	84 e0       	ldi	r24, 0x04	; 4
  86:	89 27       	eor	r24, r25
  88:	85 bb       	out	0x15, r24	; 21
  8a:	90 e0       	ldi	r25, 0x00	; 0
  8c:	0e 94 86 00 	call	0x10c	; 0x10c <TIMER0_CALLBACK>
  90:	0e 94 55 00 	call	0xaa	; 0xaa <TIMER0_INIT>
  94:	6a ef       	ldi	r22, 0xFA	; 250
  96:	70 e0       	ldi	r23, 0x00	; 0
  98:	80 e0       	ldi	r24, 0x00	; 0
  9a:	90 e0       	ldi	r25, 0x00	; 0
  9c:	0e 94 6e 00 	call	0xdc	; 0xdc <TIMER0_CTC_GENERATE>
  a0:	84 e6       	ldi	r24, 0x64	; 100
  a2:	90 e0       	ldi	r25, 0x00	; 0
  a4:	0e 94 7c 00 	call	0xf8	; 0xf8 <PWM0_Generate>
  a8:	ff cf       	rjmp	.-2      	; 0xa8 <main+0x2c>

000000aa <TIMER0_INIT>:
  aa:	83 b7       	in	r24, 0x33	; 51
  ac:	88 60       	ori	r24, 0x08	; 8
  ae:	83 bf       	out	0x33, r24	; 51
  b0:	83 b7       	in	r24, 0x33	; 51
  b2:	80 64       	ori	r24, 0x40	; 64
  b4:	83 bf       	out	0x33, r24	; 51
  b6:	83 b7       	in	r24, 0x33	; 51
  b8:	80 62       	ori	r24, 0x20	; 32
  ba:	83 bf       	out	0x33, r24	; 51
  bc:	83 b7       	in	r24, 0x33	; 51
  be:	81 60       	ori	r24, 0x01	; 1
  c0:	83 bf       	out	0x33, r24	; 51
  c2:	83 b7       	in	r24, 0x33	; 51
  c4:	82 60       	ori	r24, 0x02	; 2
  c6:	83 bf       	out	0x33, r24	; 51
  c8:	83 b7       	in	r24, 0x33	; 51
  ca:	8f 77       	andi	r24, 0x7F	; 127
  cc:	83 bf       	out	0x33, r24	; 51
  ce:	8f b7       	in	r24, 0x3f	; 63
  d0:	80 68       	ori	r24, 0x80	; 128
  d2:	8f bf       	out	0x3f, r24	; 63
  d4:	89 b7       	in	r24, 0x39	; 57
  d6:	81 60       	ori	r24, 0x01	; 1
  d8:	89 bf       	out	0x39, r24	; 57
  da:	08 95       	ret

000000dc <TIMER0_CTC_GENERATE>:
  dc:	6c bf       	out	0x3c, r22	; 60
  de:	84 e0       	ldi	r24, 0x04	; 4
  e0:	90 e0       	ldi	r25, 0x00	; 0
  e2:	a0 e0       	ldi	r26, 0x00	; 0
  e4:	b0 e0       	ldi	r27, 0x00	; 0
  e6:	80 93 64 00 	sts	0x0064, r24	; 0x800064 <OC_MATCH>
  ea:	90 93 65 00 	sts	0x0065, r25	; 0x800065 <OC_MATCH+0x1>
  ee:	a0 93 66 00 	sts	0x0066, r26	; 0x800066 <OC_MATCH+0x2>
  f2:	b0 93 67 00 	sts	0x0067, r27	; 0x800067 <OC_MATCH+0x3>
  f6:	08 95       	ret

000000f8 <PWM0_Generate>:
  f8:	20 e0       	ldi	r18, 0x00	; 0
  fa:	98 2f       	mov	r25, r24
  fc:	82 2f       	mov	r24, r18
  fe:	64 e6       	ldi	r22, 0x64	; 100
 100:	70 e0       	ldi	r23, 0x00	; 0
 102:	0e 94 da 00 	call	0x1b4	; 0x1b4 <__udivmodhi4>
 106:	61 50       	subi	r22, 0x01	; 1
 108:	6c bf       	out	0x3c, r22	; 60
 10a:	08 95       	ret

0000010c <TIMER0_CALLBACK>:
 10c:	90 93 69 00 	sts	0x0069, r25	; 0x800069 <Hold_Address+0x1>
 110:	80 93 68 00 	sts	0x0068, r24	; 0x800068 <Hold_Address>
 114:	08 95       	ret

00000116 <__vector_10>:
 116:	1f 92       	push	r1
 118:	0f 92       	push	r0
 11a:	0f b6       	in	r0, 0x3f	; 63
 11c:	0f 92       	push	r0
 11e:	11 24       	eor	r1, r1
 120:	2f 93       	push	r18
 122:	3f 93       	push	r19
 124:	4f 93       	push	r20
 126:	5f 93       	push	r21
 128:	6f 93       	push	r22
 12a:	7f 93       	push	r23
 12c:	8f 93       	push	r24
 12e:	9f 93       	push	r25
 130:	af 93       	push	r26
 132:	bf 93       	push	r27
 134:	ef 93       	push	r30
 136:	ff 93       	push	r31
 138:	80 91 60 00 	lds	r24, 0x0060	; 0x800060 <__DATA_REGION_ORIGIN__>
 13c:	90 91 61 00 	lds	r25, 0x0061	; 0x800061 <__DATA_REGION_ORIGIN__+0x1>
 140:	a0 91 62 00 	lds	r26, 0x0062	; 0x800062 <__DATA_REGION_ORIGIN__+0x2>
 144:	b0 91 63 00 	lds	r27, 0x0063	; 0x800063 <__DATA_REGION_ORIGIN__+0x3>
 148:	01 96       	adiw	r24, 0x01	; 1
 14a:	a1 1d       	adc	r26, r1
 14c:	b1 1d       	adc	r27, r1
 14e:	80 93 60 00 	sts	0x0060, r24	; 0x800060 <__DATA_REGION_ORIGIN__>
 152:	90 93 61 00 	sts	0x0061, r25	; 0x800061 <__DATA_REGION_ORIGIN__+0x1>
 156:	a0 93 62 00 	sts	0x0062, r26	; 0x800062 <__DATA_REGION_ORIGIN__+0x2>
 15a:	b0 93 63 00 	sts	0x0063, r27	; 0x800063 <__DATA_REGION_ORIGIN__+0x3>
 15e:	40 91 64 00 	lds	r20, 0x0064	; 0x800064 <OC_MATCH>
 162:	50 91 65 00 	lds	r21, 0x0065	; 0x800065 <OC_MATCH+0x1>
 166:	60 91 66 00 	lds	r22, 0x0066	; 0x800066 <OC_MATCH+0x2>
 16a:	70 91 67 00 	lds	r23, 0x0067	; 0x800067 <OC_MATCH+0x3>
 16e:	84 17       	cp	r24, r20
 170:	95 07       	cpc	r25, r21
 172:	a6 07       	cpc	r26, r22
 174:	b7 07       	cpc	r27, r23
 176:	69 f4       	brne	.+26     	; 0x192 <__vector_10+0x7c>
 178:	10 92 60 00 	sts	0x0060, r1	; 0x800060 <__DATA_REGION_ORIGIN__>
 17c:	10 92 61 00 	sts	0x0061, r1	; 0x800061 <__DATA_REGION_ORIGIN__+0x1>
 180:	10 92 62 00 	sts	0x0062, r1	; 0x800062 <__DATA_REGION_ORIGIN__+0x2>
 184:	10 92 63 00 	sts	0x0063, r1	; 0x800063 <__DATA_REGION_ORIGIN__+0x3>
 188:	e0 91 68 00 	lds	r30, 0x0068	; 0x800068 <Hold_Address>
 18c:	f0 91 69 00 	lds	r31, 0x0069	; 0x800069 <Hold_Address+0x1>
 190:	09 95       	icall
 192:	ff 91       	pop	r31
 194:	ef 91       	pop	r30
 196:	bf 91       	pop	r27
 198:	af 91       	pop	r26
 19a:	9f 91       	pop	r25
 19c:	8f 91       	pop	r24
 19e:	7f 91       	pop	r23
 1a0:	6f 91       	pop	r22
 1a2:	5f 91       	pop	r21
 1a4:	4f 91       	pop	r20
 1a6:	3f 91       	pop	r19
 1a8:	2f 91       	pop	r18
 1aa:	0f 90       	pop	r0
 1ac:	0f be       	out	0x3f, r0	; 63
 1ae:	0f 90       	pop	r0
 1b0:	1f 90       	pop	r1
 1b2:	18 95       	reti

000001b4 <__udivmodhi4>:
 1b4:	aa 1b       	sub	r26, r26
 1b6:	bb 1b       	sub	r27, r27
 1b8:	51 e1       	ldi	r21, 0x11	; 17
 1ba:	07 c0       	rjmp	.+14     	; 0x1ca <__udivmodhi4_ep>

000001bc <__udivmodhi4_loop>:
 1bc:	aa 1f       	adc	r26, r26
 1be:	bb 1f       	adc	r27, r27
 1c0:	a6 17       	cp	r26, r22
 1c2:	b7 07       	cpc	r27, r23
 1c4:	10 f0       	brcs	.+4      	; 0x1ca <__udivmodhi4_ep>
 1c6:	a6 1b       	sub	r26, r22
 1c8:	b7 0b       	sbc	r27, r23

000001ca <__udivmodhi4_ep>:
 1ca:	88 1f       	adc	r24, r24
 1cc:	99 1f       	adc	r25, r25
 1ce:	5a 95       	dec	r21
 1d0:	a9 f7       	brne	.-22     	; 0x1bc <__udivmodhi4_loop>
 1d2:	80 95       	com	r24
 1d4:	90 95       	com	r25
 1d6:	bc 01       	movw	r22, r24
 1d8:	cd 01       	movw	r24, r26
 1da:	08 95       	ret

000001dc <_exit>:
 1dc:	f8 94       	cli

000001de <__stop_program>:
 1de:	ff cf       	rjmp	.-2      	; 0x1de <__stop_program>
